target datalayout = "e-m:e-p270:32:32-p271:32:32-p272:64:64-i64:64-i128:128-f80:128-n8:16:32:64-S128"
target triple = "x86_64-unknown-linux-gnu"

%"class.v8::LocalBase.1" = type { %"class.v8::IndirectHandleBase" }
%"class.v8::IndirectHandleBase" = type { ptr }
%"class.v8::Local.0" = type { %"class.v8::LocalBase.1" }
%"class.v8::Local" = type { %"class.v8::LocalBase" }
%"class.v8::LocalBase" = type { %"class.v8::IndirectHandleBase" }
%"class.v8::Local.339" = type { %"class.v8::LocalBase.340" }
%"class.v8::LocalBase.340" = type { %"class.v8::IndirectHandleBase" }
%"class.v8::FunctionCallbackInfo" = type <{ ptr, ptr, i32, [4 x i8] }>

; Function Attrs: mustprogress nounwind uwtable
define linkonce_odr dso_local noundef ptr @_ZN4node10BaseObject12FromJSObjectEN2v85LocalINS1_5ValueEEE(ptr %value.coerce) #4 comdat align 2 {
entry:
  %slot.addr.i = alloca ptr, align 8
  %this.addr.i.i = alloca ptr, align 8
  %this.addr.i44 = alloca ptr, align 8
  %heap_object_ptr.addr.i38 = alloca i64, align 8
  %offset.addr.i39 = alloca i32, align 4
  %addr.i40 = alloca i64, align 8
  %heap_object_ptr.addr.i32 = alloca i64, align 8
  %offset.addr.i33 = alloca i32, align 4
  %addr.i34 = alloca i64, align 8
  %heap_object_ptr.addr.i27 = alloca i64, align 8
  %offset.addr.i28 = alloca i32, align 4
  %addr.i = alloca i64, align 8
  %heap_object_ptr.addr.i24 = alloca i64, align 8
  %offset.addr.i25 = alloca i32, align 4
  %isolate.addr.i = alloca ptr, align 8
  %heap_object_ptr.addr.i = alloca i64, align 8
  %offset.addr.i = alloca i32, align 4
  %obj.addr.i22 = alloca i64, align 8
  %instance_type.addr.i = alloca i32, align 4
  %obj.addr.i = alloca i64, align 8
  %map.i = alloca i64, align 8
  %value.addr.i = alloca ptr, align 8
  %this.addr.i18 = alloca ptr, align 8
  %other.addr.i19 = alloca ptr, align 8
  %this.addr.i16 = alloca ptr, align 8
  %other.addr.i = alloca ptr, align 8
  %retval.i15 = alloca %"class.v8::Local.0", align 8
  %that.i = alloca %"class.v8::Local", align 8
  %ref.tmp.i = alloca %"class.v8::LocalBase.1", align 8
  %retval.i11 = alloca ptr, align 8
  %this.addr.i12 = alloca ptr, align 8
  %index.addr.i = alloca i32, align 4
  %obj.i = alloca i64, align 8
  %instance_type.i = alloca i32, align 4
  %offset.i = alloca i32, align 4
  %isolate.i = alloca ptr, align 8
  %value.i = alloca i64, align 8
  %retval.i = alloca %"class.v8::Local.0", align 8
  %this.addr.i8 = alloca ptr, align 8
  %agg.tmp.i = alloca %"class.v8::Local", align 8
  %this.addr.i = alloca ptr, align 8
  %value = alloca %"class.v8::Local", align 8
  %obj = alloca %"class.v8::Local.0", align 8
  %coerce.dive = getelementptr inbounds %"class.v8::Local", ptr %value, i32 0, i32 0
  %coerce.dive1 = getelementptr inbounds %"class.v8::LocalBase", ptr %coerce.dive, i32 0, i32 0
  %coerce.dive2 = getelementptr inbounds %"class.v8::IndirectHandleBase", ptr %coerce.dive1, i32 0, i32 0
  store ptr %value.coerce, ptr %coerce.dive2, align 8
  store ptr %value, ptr %this.addr.i8, align 8
  %this1.i9 = load ptr, ptr %this.addr.i8, align 8
  call void @llvm.memcpy.p0.p0.i64(ptr align 8 %agg.tmp.i, ptr align 8 %this1.i9, i64 8, i1 false)
  %0 = load ptr, ptr %agg.tmp.i, align 8
  store ptr %0, ptr %that.i, align 8
  store ptr %ref.tmp.i, ptr %this.addr.i16, align 8
  store ptr %that.i, ptr %other.addr.i, align 8
  %this1.i17 = load ptr, ptr %this.addr.i16, align 8
  %1 = load ptr, ptr %other.addr.i, align 8
  call void @llvm.memcpy.p0.p0.i64(ptr align 8 %this1.i17, ptr align 8 %1, i64 8, i1 false)
  store ptr %retval.i15, ptr %this.addr.i18, align 8
  store ptr %ref.tmp.i, ptr %other.addr.i19, align 8
  %this1.i20 = load ptr, ptr %this.addr.i18, align 8
  %2 = load ptr, ptr %other.addr.i19, align 8
  call void @llvm.memcpy.p0.p0.i64(ptr align 8 %this1.i20, ptr align 8 %2, i64 8, i1 false)
  %3 = load ptr, ptr %retval.i15, align 8
  store ptr %3, ptr %retval.i, align 8
  %4 = load ptr, ptr %retval.i, align 8
  %coerce.dive3 = getelementptr inbounds %"class.v8::Local.0", ptr %obj, i32 0, i32 0
  %coerce.dive4 = getelementptr inbounds %"class.v8::LocalBase.1", ptr %coerce.dive3, i32 0, i32 0
  %coerce.dive5 = getelementptr inbounds %"class.v8::IndirectHandleBase", ptr %coerce.dive4, i32 0, i32 0
  store ptr %4, ptr %coerce.dive5, align 8
  store ptr %obj, ptr %this.addr.i, align 8
  %this1.i = load ptr, ptr %this.addr.i, align 8
  store ptr %this1.i, ptr %this.addr.i44, align 8
  %this1.i45 = load ptr, ptr %this.addr.i44, align 8
  store ptr %this1.i45, ptr %this.addr.i.i, align 8
  %this1.i.i = load ptr, ptr %this.addr.i.i, align 8
  %5 = load ptr, ptr %this1.i.i, align 8
  store ptr %5, ptr %slot.addr.i, align 8
  %6 = load ptr, ptr %slot.addr.i, align 8
  store ptr %6, ptr %this.addr.i12, align 8
  store i32 1, ptr %index.addr.i, align 4
  %this1.i13 = load ptr, ptr %this.addr.i12, align 8
  store ptr %this1.i13, ptr %value.addr.i, align 8
  %7 = load ptr, ptr %value.addr.i, align 8
  %8 = load i64, ptr %7, align 8
  store i64 %8, ptr %obj.i, align 8
  %9 = load i64, ptr %obj.i, align 8
  store i64 %9, ptr %obj.addr.i, align 8
  %10 = load i64, ptr %obj.addr.i, align 8
  store i64 %10, ptr %heap_object_ptr.addr.i24, align 8
  store i32 0, ptr %offset.addr.i25, align 4
  %11 = load i64, ptr %heap_object_ptr.addr.i24, align 8
  %12 = load i32, ptr %offset.addr.i25, align 4
  store i64 %11, ptr %heap_object_ptr.addr.i32, align 8
  store i32 %12, ptr %offset.addr.i33, align 4
  %13 = load i64, ptr %heap_object_ptr.addr.i32, align 8
  %14 = load i32, ptr %offset.addr.i33, align 4
  %conv.i35 = sext i32 %14 to i64
  %add.i36 = add i64 %13, %conv.i35
  %sub.i37 = sub i64 %add.i36, 1
  store i64 %sub.i37, ptr %addr.i34, align 8
  %15 = load i64, ptr %addr.i34, align 8
  %16 = inttoptr i64 %15 to ptr
  %17 = load i64, ptr %16, align 8
  store i64 %17, ptr %map.i, align 8
  %18 = load i64, ptr %map.i, align 8
  store i64 %18, ptr %heap_object_ptr.addr.i27, align 8
  store i32 12, ptr %offset.addr.i28, align 4
  %19 = load i64, ptr %heap_object_ptr.addr.i27, align 8
  %20 = load i32, ptr %offset.addr.i28, align 4
  %conv.i29 = sext i32 %20 to i64
  %add.i30 = add i64 %19, %conv.i29
  %sub.i31 = sub i64 %add.i30, 1
  store i64 %sub.i31, ptr %addr.i, align 8
  %21 = load i64, ptr %addr.i, align 8
  %22 = inttoptr i64 %21 to ptr
  %23 = load i16, ptr %22, align 2
  %conv.i = zext i16 %23 to i32
  store i32 %conv.i, ptr %instance_type.i, align 4
  %24 = load i32, ptr %instance_type.i, align 4
  store i32 %24, ptr %instance_type.addr.i, align 4
  %25 = load i32, ptr %instance_type.addr.i, align 4
  %cmp.i = icmp eq i32 %25, 1040
  br i1 %cmp.i, label %_ZN2v88internal9Internals20CanHaveInternalFieldEi.exit, label %lor.rhs.i

lor.rhs.i:                                        ; preds = %entry
  %26 = load i32, ptr %instance_type.addr.i, align 4
  %sub.i = sub i32 %26, 1057
  %cmp1.i = icmp ule i32 %sub.i, 1001
  br label %_ZN2v88internal9Internals20CanHaveInternalFieldEi.exit

_ZN2v88internal9Internals20CanHaveInternalFieldEi.exit: ; preds = %lor.rhs.i, %entry
  %27 = phi i1 [ true, %entry ], [ %cmp1.i, %lor.rhs.i ]
  br i1 %27, label %if.then.i, label %if.end.i

if.then.i:                                        ; preds = %_ZN2v88internal9Internals20CanHaveInternalFieldEi.exit
  %28 = load i32, ptr %index.addr.i, align 4
  %mul.i = mul nsw i32 8, %28
  %add.i = add nsw i32 24, %mul.i
  store i32 %add.i, ptr %offset.i, align 4
  %29 = load i64, ptr %obj.i, align 8
  store i64 %29, ptr %obj.addr.i22, align 8
  store ptr null, ptr %isolate.i, align 8
  %30 = load ptr, ptr %isolate.i, align 8
  %31 = load i64, ptr %obj.i, align 8
  %32 = load i32, ptr %offset.i, align 4
  store ptr %30, ptr %isolate.addr.i, align 8
  store i64 %31, ptr %heap_object_ptr.addr.i, align 8
  store i32 %32, ptr %offset.addr.i, align 4
  %33 = load i64, ptr %heap_object_ptr.addr.i, align 8
  %34 = load i32, ptr %offset.addr.i, align 4
  store i64 %33, ptr %heap_object_ptr.addr.i38, align 8
  store i32 %34, ptr %offset.addr.i39, align 4
  %35 = load i64, ptr %heap_object_ptr.addr.i38, align 8
  %36 = load i32, ptr %offset.addr.i39, align 4
  %conv.i41 = sext i32 %36 to i64
  %add.i42 = add i64 %35, %conv.i41
  %sub.i43 = sub i64 %add.i42, 1
  store i64 %sub.i43, ptr %addr.i40, align 8
  %37 = load i64, ptr %addr.i40, align 8
  %38 = inttoptr i64 %37 to ptr
  %39 = load i64, ptr %38, align 8
  store i64 %39, ptr %value.i, align 8
  %40 = load i64, ptr %value.i, align 8
  %41 = inttoptr i64 %40 to ptr
  store ptr %41, ptr %retval.i11, align 8
  br label %_ZN2v86Object34GetAlignedPointerFromInternalFieldEi.exit

if.end.i:                                         ; preds = %_ZN2v88internal9Internals20CanHaveInternalFieldEi.exit
  %42 = load i32, ptr %index.addr.i, align 4
  %call7.i = call noundef ptr @_ZN2v86Object38SlowGetAlignedPointerFromInternalFieldEi(ptr noundef nonnull align 1 dereferenceable(1) %this1.i13, i32 noundef %42) #3
  store ptr %call7.i, ptr %retval.i11, align 8
  br label %_ZN2v86Object34GetAlignedPointerFromInternalFieldEi.exit

_ZN2v86Object34GetAlignedPointerFromInternalFieldEi.exit: ; preds = %if.end.i, %if.then.i
  %43 = load ptr, ptr %retval.i11, align 8
  ret ptr %43
}

; Function Attrs: mustprogress nounwind uwtable
define dso_local void @_ZN4node10HandleWrap5CloseERKN2v820FunctionCallbackInfoINS1_5ValueEEE(ptr noundef nonnull align 8 dereferenceable(20) %args) #4 align 2 {
entry:
  %this.addr.i2.i = alloca ptr, align 8
  %location.addr.i3.i = alloca ptr, align 8
  %this.addr.i.i68 = alloca ptr, align 8
  %location.addr.i.i69 = alloca ptr, align 8
  %retval.i70 = alloca %"class.v8::LocalBase.1", align 8
  %slot.addr.i71 = alloca ptr, align 8
  %this.addr.i.i61 = alloca ptr, align 8
  %other.addr.i.i62 = alloca ptr, align 8
  %retval.i63 = alloca %"class.v8::Local.0", align 8
  %slot.addr.i64 = alloca ptr, align 8
  %ref.tmp.i65 = alloca %"class.v8::LocalBase.1", align 8
  %this.addr.i58 = alloca ptr, align 8
  %other.addr.i59 = alloca ptr, align 8
  %this.addr.i.i52 = alloca ptr, align 8
  %location.addr.i.i53 = alloca ptr, align 8
  %this.addr.i54 = alloca ptr, align 8
  %location.addr.i55 = alloca ptr, align 8
  %retval.i50 = alloca %"class.v8::LocalBase", align 8
  %slot.addr.i51 = alloca ptr, align 8
  %this.addr.i.i44 = alloca ptr, align 8
  %other.addr.i.i = alloca ptr, align 8
  %retval.i45 = alloca %"class.v8::Local", align 8
  %slot.addr.i46 = alloca ptr, align 8
  %ref.tmp.i47 = alloca %"class.v8::LocalBase", align 8
  %this.addr.i42 = alloca ptr, align 8
  %this.addr.i39 = alloca ptr, align 8
  %other.addr.i40 = alloca ptr, align 8
  %that.i36 = alloca %"class.v8::Local.339", align 8
  %this.addr.i37 = alloca ptr, align 8
  %this.addr.i.i = alloca ptr, align 8
  %location.addr.i.i = alloca ptr, align 8
  %this.addr.i34 = alloca ptr, align 8
  %location.addr.i = alloca ptr, align 8
  %this.addr.i32 = alloca ptr, align 8
  %other.addr.i = alloca ptr, align 8
  %retval.i30 = alloca %"class.v8::LocalBase.340", align 8
  %slot.addr.i31 = alloca ptr, align 8
  %retval.i28 = alloca %"class.v8::Local.339", align 8
  %slot.addr.i = alloca ptr, align 8
  %ref.tmp.i = alloca %"class.v8::LocalBase.340", align 8
  %isolate.addr.i27 = alloca ptr, align 8
  %index.addr.i = alloca i32, align 4
  %addr.i = alloca i64, align 8
  %isolate.addr.i26 = alloca ptr, align 8
  %retval.i24 = alloca %"class.v8::Local.339", align 8
  %isolate.addr.i = alloca ptr, align 8
  %slot.i = alloca ptr, align 8
  %retval.i20 = alloca %"class.v8::Local", align 8
  %this.addr.i21 = alloca ptr, align 8
  %i.addr.i = alloca i32, align 4
  %agg.tmp.i = alloca %"class.v8::Local.339", align 8
  %that.i = alloca %"class.v8::Local.0", align 8
  %this.addr.i19 = alloca ptr, align 8
  %retval.i = alloca %"class.v8::Local.0", align 8
  %this.addr.i = alloca ptr, align 8
  %args.addr = alloca ptr, align 8
  %wrap = alloca ptr, align 8
  %agg.tmp = alloca %"class.v8::Local", align 8
  %agg.tmp1 = alloca %"class.v8::Local.0", align 8
  %agg.tmp11 = alloca %"class.v8::Local", align 8
  store ptr %args, ptr %args.addr, align 8
  br label %do.body

do.body:                                          ; preds = %entry
  %0 = load ptr, ptr %args.addr, align 8
  store ptr %0, ptr %this.addr.i, align 8
  %this1.i = load ptr, ptr %this.addr.i, align 8
  %1 = load ptr, ptr %this1.i, align 8
  store ptr %1, ptr %slot.addr.i64, align 8
  %2 = load ptr, ptr %slot.addr.i64, align 8
  store ptr %2, ptr %slot.addr.i71, align 8
  %3 = load ptr, ptr %slot.addr.i71, align 8
  store ptr %retval.i70, ptr %this.addr.i.i68, align 8
  store ptr %3, ptr %location.addr.i.i69, align 8
  %this1.i.i72 = load ptr, ptr %this.addr.i.i68, align 8
  %4 = load ptr, ptr %location.addr.i.i69, align 8
  store ptr %this1.i.i72, ptr %this.addr.i2.i, align 8
  store ptr %4, ptr %location.addr.i3.i, align 8
  %this1.i4.i = load ptr, ptr %this.addr.i2.i, align 8
  %5 = load ptr, ptr %location.addr.i3.i, align 8
  store ptr %5, ptr %this1.i4.i, align 8
  %6 = load ptr, ptr %retval.i70, align 8
  store ptr %6, ptr %ref.tmp.i65, align 8
  store ptr %retval.i63, ptr %this.addr.i.i61, align 8
  store ptr %ref.tmp.i65, ptr %other.addr.i.i62, align 8
  %this1.i.i67 = load ptr, ptr %this.addr.i.i61, align 8
  %7 = load ptr, ptr %other.addr.i.i62, align 8
  call void @llvm.memcpy.p0.p0.i64(ptr align 8 %this1.i.i67, ptr align 8 %7, i64 8, i1 false)
  %8 = load ptr, ptr %retval.i63, align 8
  store ptr %8, ptr %retval.i, align 8
  %9 = load ptr, ptr %retval.i, align 8
  %coerce.dive = getelementptr inbounds %"class.v8::Local.0", ptr %agg.tmp1, i32 0, i32 0
  %coerce.dive2 = getelementptr inbounds %"class.v8::LocalBase.1", ptr %coerce.dive, i32 0, i32 0
  %coerce.dive3 = getelementptr inbounds %"class.v8::IndirectHandleBase", ptr %coerce.dive2, i32 0, i32 0
  store ptr %9, ptr %coerce.dive3, align 8
  %coerce.dive4 = getelementptr inbounds %"class.v8::Local.0", ptr %agg.tmp1, i32 0, i32 0
  %coerce.dive5 = getelementptr inbounds %"class.v8::LocalBase.1", ptr %coerce.dive4, i32 0, i32 0
  %coerce.dive6 = getelementptr inbounds %"class.v8::IndirectHandleBase", ptr %coerce.dive5, i32 0, i32 0
  %10 = load ptr, ptr %coerce.dive6, align 8
  store ptr %10, ptr %that.i, align 8
  store ptr %agg.tmp, ptr %this.addr.i19, align 8
  %this3.i = load ptr, ptr %this.addr.i19, align 8
  store ptr %this3.i, ptr %this.addr.i58, align 8
  store ptr %that.i, ptr %other.addr.i59, align 8
  %this1.i60 = load ptr, ptr %this.addr.i58, align 8
  %11 = load ptr, ptr %other.addr.i59, align 8
  call void @llvm.memcpy.p0.p0.i64(ptr align 8 %this1.i60, ptr align 8 %11, i64 8, i1 false)
  %coerce.dive7 = getelementptr inbounds %"class.v8::Local", ptr %agg.tmp, i32 0, i32 0
  %coerce.dive8 = getelementptr inbounds %"class.v8::LocalBase", ptr %coerce.dive7, i32 0, i32 0
  %coerce.dive9 = getelementptr inbounds %"class.v8::IndirectHandleBase", ptr %coerce.dive8, i32 0, i32 0
  %12 = load ptr, ptr %coerce.dive9, align 8
  %call10 = call noundef ptr @_ZN4node10BaseObject12FromJSObjectEN2v85LocalINS1_5ValueEEE(ptr %12)
  store ptr %call10, ptr %wrap, align 8
  %13 = load ptr, ptr %wrap, align 8
  %cmp = icmp eq ptr %13, null
  br i1 %cmp, label %if.then, label %if.end

if.then:                                          ; preds = %do.body
  br label %return

if.end:                                           ; preds = %do.body
  br label %do.end

do.end:                                           ; preds = %if.end
  %14 = load ptr, ptr %wrap, align 8
  %15 = load ptr, ptr %args.addr, align 8
  store ptr %15, ptr %this.addr.i21, align 8
  store i32 0, ptr %i.addr.i, align 4
  %this1.i22 = load ptr, ptr %this.addr.i21, align 8
  %16 = load i32, ptr %i.addr.i, align 4
  %cmp.i = icmp slt i32 %16, 0
  br i1 %cmp.i, label %if.then.i, label %lor.lhs.false.i

lor.lhs.false.i:                                  ; preds = %do.end
  %length_.i = getelementptr inbounds %"class.v8::FunctionCallbackInfo", ptr %this1.i22, i32 0, i32 2
  %17 = load i32, ptr %length_.i, align 8
  %18 = load i32, ptr %i.addr.i, align 4
  %cmp2.i = icmp sle i32 %17, %18
  br i1 %cmp2.i, label %if.then.i, label %if.end.i

if.then.i:                                        ; preds = %lor.lhs.false.i, %do.end
  store ptr %this1.i22, ptr %this.addr.i42, align 8
  %this1.i43 = load ptr, ptr %this.addr.i42, align 8
  %19 = load ptr, ptr %this1.i43, align 8
  %arrayidx.i = getelementptr inbounds i64, ptr %19, i64 1
  %20 = load ptr, ptr %arrayidx.i, align 8
  store ptr %20, ptr %isolate.addr.i, align 8
  %21 = load ptr, ptr %isolate.addr.i, align 8
  store ptr %21, ptr %isolate.addr.i26, align 8
  %22 = load ptr, ptr %isolate.addr.i, align 8
  store ptr %22, ptr %isolate.addr.i27, align 8
  store i32 4, ptr %index.addr.i, align 4
  %23 = load ptr, ptr %isolate.addr.i27, align 8
  %24 = ptrtoint ptr %23 to i64
  %add.i = add i64 %24, 576
  %25 = load i32, ptr %index.addr.i, align 4
  %mul.i = mul nsw i32 %25, 8
  %conv.i = sext i32 %mul.i to i64
  %add1.i = add i64 %add.i, %conv.i
  store i64 %add1.i, ptr %addr.i, align 8
  %26 = load i64, ptr %addr.i, align 8
  %27 = inttoptr i64 %26 to ptr
  store ptr %27, ptr %slot.i, align 8
  %28 = load ptr, ptr %slot.i, align 8
  store ptr %28, ptr %slot.addr.i, align 8
  %29 = load ptr, ptr %slot.addr.i, align 8
  store ptr %29, ptr %slot.addr.i31, align 8
  %30 = load ptr, ptr %slot.addr.i31, align 8
  store ptr %retval.i30, ptr %this.addr.i34, align 8
  store ptr %30, ptr %location.addr.i, align 8
  %this1.i35 = load ptr, ptr %this.addr.i34, align 8
  %31 = load ptr, ptr %location.addr.i, align 8
  store ptr %this1.i35, ptr %this.addr.i.i, align 8
  store ptr %31, ptr %location.addr.i.i, align 8
  %this1.i.i = load ptr, ptr %this.addr.i.i, align 8
  %32 = load ptr, ptr %location.addr.i.i, align 8
  store ptr %32, ptr %this1.i.i, align 8
  %33 = load ptr, ptr %retval.i30, align 8
  store ptr %33, ptr %ref.tmp.i, align 8
  store ptr %retval.i28, ptr %this.addr.i32, align 8
  store ptr %ref.tmp.i, ptr %other.addr.i, align 8
  %this1.i33 = load ptr, ptr %this.addr.i32, align 8
  %34 = load ptr, ptr %other.addr.i, align 8
  call void @llvm.memcpy.p0.p0.i64(ptr align 8 %this1.i33, ptr align 8 %34, i64 8, i1 false)
  %35 = load ptr, ptr %retval.i28, align 8
  store ptr %35, ptr %retval.i24, align 8
  %36 = load ptr, ptr %retval.i24, align 8
  store ptr %36, ptr %agg.tmp.i, align 8
  %37 = load ptr, ptr %agg.tmp.i, align 8
  store ptr %37, ptr %that.i36, align 8
  store ptr %retval.i20, ptr %this.addr.i37, align 8
  %this3.i38 = load ptr, ptr %this.addr.i37, align 8
  store ptr %this3.i38, ptr %this.addr.i39, align 8
  store ptr %that.i36, ptr %other.addr.i40, align 8
  %this1.i41 = load ptr, ptr %this.addr.i39, align 8
  %38 = load ptr, ptr %other.addr.i40, align 8
  call void @llvm.memcpy.p0.p0.i64(ptr align 8 %this1.i41, ptr align 8 %38, i64 8, i1 false)
  br label %_ZNK2v820FunctionCallbackInfoINS_5ValueEEixEi.exit

if.end.i:                                         ; preds = %lor.lhs.false.i
  %values_.i = getelementptr inbounds %"class.v8::FunctionCallbackInfo", ptr %this1.i22, i32 0, i32 1
  %39 = load ptr, ptr %values_.i, align 8
  %40 = load i32, ptr %i.addr.i, align 4
  %idx.ext.i = sext i32 %40 to i64
  %add.ptr.i = getelementptr inbounds i64, ptr %39, i64 %idx.ext.i
  store ptr %add.ptr.i, ptr %slot.addr.i46, align 8
  %41 = load ptr, ptr %slot.addr.i46, align 8
  store ptr %41, ptr %slot.addr.i51, align 8
  %42 = load ptr, ptr %slot.addr.i51, align 8
  store ptr %retval.i50, ptr %this.addr.i54, align 8
  store ptr %42, ptr %location.addr.i55, align 8
  %this1.i56 = load ptr, ptr %this.addr.i54, align 8
  %43 = load ptr, ptr %location.addr.i55, align 8
  store ptr %this1.i56, ptr %this.addr.i.i52, align 8
  store ptr %43, ptr %location.addr.i.i53, align 8
  %this1.i.i57 = load ptr, ptr %this.addr.i.i52, align 8
  %44 = load ptr, ptr %location.addr.i.i53, align 8
  store ptr %44, ptr %this1.i.i57, align 8
  %45 = load ptr, ptr %retval.i50, align 8
  store ptr %45, ptr %ref.tmp.i47, align 8
  store ptr %retval.i45, ptr %this.addr.i.i44, align 8
  store ptr %ref.tmp.i47, ptr %other.addr.i.i, align 8
  %this1.i.i49 = load ptr, ptr %this.addr.i.i44, align 8
  %46 = load ptr, ptr %other.addr.i.i, align 8
  call void @llvm.memcpy.p0.p0.i64(ptr align 8 %this1.i.i49, ptr align 8 %46, i64 8, i1 false)
  %47 = load ptr, ptr %retval.i45, align 8
  store ptr %47, ptr %retval.i20, align 8
  br label %_ZNK2v820FunctionCallbackInfoINS_5ValueEEixEi.exit

_ZNK2v820FunctionCallbackInfoINS_5ValueEEixEi.exit: ; preds = %if.end.i, %if.then.i
  %48 = load ptr, ptr %retval.i20, align 8
  %coerce.dive13 = getelementptr inbounds %"class.v8::Local", ptr %agg.tmp11, i32 0, i32 0
  %coerce.dive14 = getelementptr inbounds %"class.v8::LocalBase", ptr %coerce.dive13, i32 0, i32 0
  %coerce.dive15 = getelementptr inbounds %"class.v8::IndirectHandleBase", ptr %coerce.dive14, i32 0, i32 0
  store ptr %48, ptr %coerce.dive15, align 8
  %coerce.dive16 = getelementptr inbounds %"class.v8::Local", ptr %agg.tmp11, i32 0, i32 0
  %coerce.dive17 = getelementptr inbounds %"class.v8::LocalBase", ptr %coerce.dive16, i32 0, i32 0
  %coerce.dive18 = getelementptr inbounds %"class.v8::IndirectHandleBase", ptr %coerce.dive17, i32 0, i32 0
  %49 = load ptr, ptr %coerce.dive18, align 8
  %vtable = load ptr, ptr %14, align 8
  %vfn = getelementptr inbounds ptr, ptr %vtable, i64 18
  %50 = load ptr, ptr %vfn, align 8
  call void %50(ptr noundef nonnull align 8 dereferenceable(88) %14, ptr %49)
  br label %return

return:                                           ; preds = %_ZNK2v820FunctionCallbackInfoINS_5ValueEEixEi.exit, %if.then
  ret void
}