; Function Attrs: mustprogress nounwind uwtable
define dso_local void @_ZN4node10HandleWrap5CloseERKN2v820FunctionCallbackInfoINS1_5ValueEEE(ptr nocapture noundef nonnull readonly align 8 dereferenceable(20) %args) #3 align 2 {
entry:
  %0 = load ptr, ptr %args, align 8
  %1 = load i64, ptr %0, align 8
  %sub.i37.i = add i64 %1, -1
  %2 = inttoptr i64 %sub.i37.i to ptr
  %3 = load i64, ptr %2, align 8
  %sub.i31.i = add i64 %3, 11
  %4 = inttoptr i64 %sub.i31.i to ptr
  %5 = load i16, ptr %4, align 2
  %conv.i.i = zext i16 %5 to i32
  %cmp.i.i = icmp eq i16 %5, 1040
  %sub.i.i = add nsw i32 %conv.i.i, -1057
  %cmp1.i.i = icmp ult i32 %sub.i.i, 1002
  %6 = select i1 %cmp.i.i, i1 true, i1 %cmp1.i.i
  br i1 %6, label %if.then.i.i, label %if.end.i.i

if.then.i.i:                                      ; preds = %entry
  %sub.i43.i = add i64 %1, 31
  %7 = inttoptr i64 %sub.i43.i to ptr
  %8 = load i64, ptr %7, align 8
  %9 = inttoptr i64 %8 to ptr
  br label %_ZN4node10BaseObject12FromJSObjectEN2v85LocalINS1_5ValueEEE.exit

if.end.i.i:                                       ; preds = %entry
  %call7.i.i = tail call noundef ptr @_ZN2v86Object38SlowGetAlignedPointerFromInternalFieldEi(ptr noundef nonnull align 1 dereferenceable(1) %0, i32 noundef 1) #14
  br label %_ZN4node10BaseObject12FromJSObjectEN2v85LocalINS1_5ValueEEE.exit

_ZN4node10BaseObject12FromJSObjectEN2v85LocalINS1_5ValueEEE.exit: ; preds = %if.then.i.i, %if.end.i.i
  %retval.i11.0.i = phi ptr [ %9, %if.then.i.i ], [ %call7.i.i, %if.end.i.i ]
  %cmp = icmp eq ptr %retval.i11.0.i, null
  br i1 %cmp, label %return, label %lor.lhs.false.i

lor.lhs.false.i:                                  ; preds = %_ZN4node10BaseObject12FromJSObjectEN2v85LocalINS1_5ValueEEE.exit
  %length_.i = getelementptr inbounds i8, ptr %args, i64 16
  %10 = load i32, ptr %length_.i, align 8
  %cmp2.i = icmp slt i32 %10, 1
  br i1 %cmp2.i, label %if.then.i, label %if.end.i

if.then.i:                                        ; preds = %lor.lhs.false.i
  %11 = load ptr, ptr %args, align 8
  %arrayidx.i = getelementptr inbounds i8, ptr %11, i64 8
  %12 = load ptr, ptr %arrayidx.i, align 8
  %13 = ptrtoint ptr %12 to i64
  %add1.i = add i64 %13, 608
  %14 = inttoptr i64 %add1.i to ptr
  br label %_ZNK2v820FunctionCallbackInfoINS_5ValueEEixEi.exit

if.end.i:                                         ; preds = %lor.lhs.false.i
  %values_.i = getelementptr inbounds i8, ptr %args, i64 8
  %15 = load ptr, ptr %values_.i, align 8
  br label %_ZNK2v820FunctionCallbackInfoINS_5ValueEEixEi.exit

_ZNK2v820FunctionCallbackInfoINS_5ValueEEixEi.exit: ; preds = %if.end.i, %if.then.i
  %retval.i20.sroa.0.0 = phi ptr [ %14, %if.then.i ], [ %15, %if.end.i ]
  %vtable = load ptr, ptr %retval.i11.0.i, align 8
  %vfn = getelementptr inbounds i8, ptr %vtable, i64 144
  %16 = load ptr, ptr %vfn, align 8
  tail call void %16(ptr noundef nonnull align 8 dereferenceable(88) %retval.i11.0.i, ptr %retval.i20.sroa.0.0) #14
  br label %return

return:                                           ; preds = %_ZN4node10BaseObject12FromJSObjectEN2v85LocalINS1_5ValueEEE.exit, %_ZNK2v820FunctionCallbackInfoINS_5ValueEEixEi.exit
  ret void
}